target datalayout = "e-m:e-p270:32:32-p271:32:32-p272:64:64-i64:64-i128:128-f80:128-n8:16:32:64-S128"
target triple = "x86_64-pc-linux-gnu"

%"class.std::__cxx11::basic_string" = type { %"struct.std::__cxx11::basic_string<char>::_Alloc_hider", i64, %union.anon }
%"struct.std::__cxx11::basic_string<char>::_Alloc_hider" = type { ptr }
%union.anon = type { i64, [8 x i8] }
%"class.std::vector.3" = type { %"struct.std::_Vector_base.4" }
%"struct.std::_Vector_base.4" = type { %"struct.std::_Vector_base<double, std::allocator<double>>::_Vector_impl" }
%"struct.std::_Vector_base<double, std::allocator<double>>::_Vector_impl" = type { %"struct.std::_Vector_base<double, std::allocator<double>>::_Vector_impl_data" }
%"struct.std::_Vector_base<double, std::allocator<double>>::_Vector_impl_data" = type { ptr, ptr, ptr }
%"class.std::vector.55" = type { %"struct.std::_Vector_base.56" }
%"struct.std::_Vector_base.56" = type { %"struct.std::_Vector_base<colvarvalue, std::allocator<colvarvalue>>::_Vector_impl" }
%"struct.std::_Vector_base<colvarvalue, std::allocator<colvarvalue>>::_Vector_impl" = type { %"struct.std::_Vector_base<colvarvalue, std::allocator<colvarvalue>>::_Vector_impl_data" }
%"struct.std::_Vector_base<colvarvalue, std::allocator<colvarvalue>>::_Vector_impl_data" = type { ptr, ptr, ptr }
%"class.colvarbias_meta::hill" = type { i64, double, double, double, %"class.std::vector.55", %"class.std::vector.3", %"class.std::__cxx11::basic_string" }

; Function Attrs: mustprogress uwtable
define noundef nonnull align 8 dereferenceable(112) ptr @_ZN15colvarbias_meta4hillaSERKS0_(ptr noundef nonnull align 8 dereferenceable(112) %0, ptr noundef nonnull align 8 dereferenceable(112) %1) #4 align 2 {
  %3 = alloca ptr, align 8
  %4 = alloca ptr, align 8
  store ptr %0, ptr %3, align 8
  store ptr %1, ptr %4, align 8
  %5 = load ptr, ptr %3, align 8
  %6 = load ptr, ptr %4, align 8
  %7 = getelementptr inbounds %"class.colvarbias_meta::hill", ptr %6, i32 0, i32 0
  %8 = load i64, ptr %7, align 8
  %9 = getelementptr inbounds %"class.colvarbias_meta::hill", ptr %5, i32 0, i32 0
  store i64 %8, ptr %9, align 8
  %10 = getelementptr inbounds %"class.colvarbias_meta::hill", ptr %5, i32 0, i32 1
  store double 0.000000e+00, ptr %10, align 8
  %11 = getelementptr inbounds %"class.colvarbias_meta::hill", ptr %5, i32 0, i32 2
  store double 1.000000e+00, ptr %11, align 8
  %12 = load ptr, ptr %4, align 8
  %13 = getelementptr inbounds %"class.colvarbias_meta::hill", ptr %12, i32 0, i32 3
  %14 = load double, ptr %13, align 8
  %15 = getelementptr inbounds %"class.colvarbias_meta::hill", ptr %5, i32 0, i32 3
  store double %14, ptr %15, align 8
  %16 = load ptr, ptr %4, align 8
  %17 = getelementptr inbounds %"class.colvarbias_meta::hill", ptr %16, i32 0, i32 4
  %18 = getelementptr inbounds %"class.colvarbias_meta::hill", ptr %5, i32 0, i32 4
  %19 = call noundef nonnull align 8 dereferenceable(24) ptr @_ZNSt6vectorI11colvarvalueSaIS0_EEaSERKS2_(ptr noundef nonnull align 8 dereferenceable(24) %18, ptr noundef nonnull align 8 dereferenceable(24) %17)
  %20 = load ptr, ptr %4, align 8
  %21 = getelementptr inbounds %"class.colvarbias_meta::hill", ptr %20, i32 0, i32 5
  %22 = getelementptr inbounds %"class.colvarbias_meta::hill", ptr %5, i32 0, i32 5
  %23 = call noundef nonnull align 8 dereferenceable(24) ptr @_ZNSt6vectorIdSaIdEEaSERKS1_(ptr noundef nonnull align 8 dereferenceable(24) %22, ptr noundef nonnull align 8 dereferenceable(24) %21)
  %24 = load ptr, ptr %4, align 8
  %25 = getelementptr inbounds %"class.colvarbias_meta::hill", ptr %24, i32 0, i32 6
  %26 = getelementptr inbounds %"class.colvarbias_meta::hill", ptr %5, i32 0, i32 6
  %27 = call noundef nonnull align 8 dereferenceable(32) ptr @_ZNSt7__cxx1112basic_stringIcSt11char_traitsIcESaIcEEaSERKS4_(ptr noundef nonnull align 8 dereferenceable(32) %26, ptr noundef nonnull align 8 dereferenceable(32) %25)
  %28 = load ptr, ptr %4, align 8
  %29 = getelementptr inbounds %"class.colvarbias_meta::hill", ptr %28, i32 0, i32 1
  %30 = load double, ptr %29, align 8
  %31 = getelementptr inbounds %"class.colvarbias_meta::hill", ptr %5, i32 0, i32 1
  store double %30, ptr %31, align 8
  ret ptr %5
}