; Function Attrs: mustprogress uwtable
define noundef nonnull align 8 dereferenceable(112) ptr @_ZN15colvarbias_meta4hillaSERKS0_(ptr noundef nonnull returned align 8 dereferenceable(112) %0, ptr noundef nonnull align 8 dereferenceable(112) %1) local_unnamed_addr #4 align 2 {
  %3 = load i64, ptr %1, align 8
  store i64 %3, ptr %0, align 8
  %4 = getelementptr inbounds i8, ptr %0, i64 8
  store <2 x double> <double 0.000000e+00, double 1.000000e+00>, ptr %4, align 8
  %5 = getelementptr inbounds i8, ptr %1, i64 24
  %6 = load double, ptr %5, align 8
  %7 = getelementptr inbounds i8, ptr %0, i64 24
  store double %6, ptr %7, align 8
  %8 = getelementptr inbounds i8, ptr %1, i64 32
  %9 = getelementptr inbounds i8, ptr %0, i64 32
  %10 = tail call noundef nonnull align 8 dereferenceable(24) ptr @_ZNSt6vectorI11colvarvalueSaIS0_EEaSERKS2_(ptr noundef nonnull align 8 dereferenceable(24) %9, ptr noundef nonnull align 8 dereferenceable(24) %8)
  %11 = getelementptr inbounds i8, ptr %1, i64 56
  %12 = getelementptr inbounds i8, ptr %0, i64 56
  %13 = tail call noundef nonnull align 8 dereferenceable(24) ptr @_ZNSt6vectorIdSaIdEEaSERKS1_(ptr noundef nonnull align 8 dereferenceable(24) %12, ptr noundef nonnull align 8 dereferenceable(24) %11)
  %14 = getelementptr inbounds i8, ptr %1, i64 80
  %15 = getelementptr inbounds i8, ptr %0, i64 80
  %16 = tail call noundef nonnull align 8 dereferenceable(32) ptr @_ZNSt7__cxx1112basic_stringIcSt11char_traitsIcESaIcEEaSERKS4_(ptr noundef nonnull align 8 dereferenceable(32) %15, ptr noundef nonnull align 8 dereferenceable(32) %14)
  %17 = getelementptr inbounds i8, ptr %1, i64 8
  %18 = load double, ptr %17, align 8
  store double %18, ptr %4, align 8
  ret ptr %0
}